; Function Attrs: nounwind uwtable
define hidden ptr @_glfwGetClipboardStringWayland() local_unnamed_addr #0 {
  %1 = load ptr, ptr getelementptr inbounds nuw (i8, ptr @_glfw, i64 134048), align 8, !tbaa !187
  %.not = icmp eq ptr %1, null
  br i1 %.not, label %2, label %3

2:                                                ; preds = %0
  tail call void (i32, ptr, ...) @_glfwInputError(i32 noundef 65545, ptr noundef nonnull @.str.33) #20
  br label %9

3:                                                ; preds = %0
  %4 = load ptr, ptr getelementptr inbounds nuw (i8, ptr @_glfw, i64 134056), align 8, !tbaa !343
  %.not1 = icmp eq ptr %4, null
  %5 = load ptr, ptr getelementptr inbounds nuw (i8, ptr @_glfw, i64 134160), align 8, !tbaa !344
  br i1 %.not1, label %6, label %9

6:                                                ; preds = %3
  tail call void @_glfw_free(ptr noundef %5) #20
  %7 = load ptr, ptr getelementptr inbounds nuw (i8, ptr @_glfw, i64 134048), align 8, !tbaa !187
  %8 = tail call fastcc ptr @readDataOfferAsString(ptr noundef %7, ptr noundef nonnull @.str.32)
  store ptr %8, ptr getelementptr inbounds nuw (i8, ptr @_glfw, i64 134160), align 8, !tbaa !344
  br label %9

9:                                                ; preds = %3, %6, %2
  %.0 = phi ptr [ %8, %6 ], [ null, %2 ], [ %5, %3 ]
  ret ptr %.0
}